(lp1
(lp2
F1
aF0.051490514820014543
aa(lp3
F1
aF0.10191932652924174
aF0.0044134250080990478
aa(lp4
F1
aF0.15127705115343304
aF0.013056456867932442
aF0.00054385572405890592
aa(lp5
F1
aF0.19955303207785058
aF0.025741690774878756
aF0.0021399402624310282
aF8.8257008659442526e-05
aa(lp6
F1
aF0.24673514674638053
aF0.042277544076799956
aF0.0052599571352656138
aF0.00043308868860592042
aF1.7815064363491118e-05
aa(lp7
F1
aF0.29280958343323893
aF0.06246756243873075
aF0.010337526204319047
aF0.0012742728406128778
aF0.00010465424212646735
aF4.301947174600862e-06
aa(lp8
F1
aF0.33776058434503842
aF0.086109606834820385
aF0.017766499384119228
aF0.0029139560321586044
aF0.00035831583804712963
aF2.9408159660793132e-05
aF1.2086360053897849e-06
aa(lp9
F1
aF0.38157015144658124
aF0.11299490340012275
aF0.027898956544092912
aF0.0057069675596819192
aF0.00093381712242412984
aF0.00011475251256021224
aF9.416425753805413e-06
aF3.8698335858011745e-07
aa(lp10
F1
aF0.42421771195321223
aF0.14290693742643645
aF0.041042825574707065
aF0.010050415788111278
aF0.0020512354841657476
aF0.00033542807850006628
aF4.1212073804475224e-05
aF3.3816415181409099e-06
aF1.3897223516412538e-07
aa(lp11
F1
aF0.46567974163904968
aF0.17562017332015345
aF0.057459065180304747
aF0.016372423460274566
aF0.0040004900188489456
aF0.00081598547494254881
aF0.00013341163190128125
aF1.6390744129624046e-05
aF1.3449193013714833e-06
aF5.5270726662115521e-08
aa(lp12
F1
aF0.50592934632112974
aF0.21089858506717518
aF0.077358346008480794
aF0.025119838353468427
aF0.0071427381787795285
aF0.0017442677585447486
aF0.0003557234557889366
aF5.8157323063356969e-05
aF7.1450295254793517e-06
aF5.8627328558547021e-07
aF2.4093430694982487e-08
aa(lp13
F1
aF0.54493580557654009
aF0.24849398801171674
aF0.10089716753787625
aF0.036744738522833997
aF0.011908003488632191
aF0.0033841193335080177
aF0.00082627951910141384
aF0.00016850302595494693
aF2.7548277327427151e-05
aF3.3844853474240821e-06
aF2.7770795596460118e-07
aF1.1412656819587141e-08
aa(lp14
F1
aF0.58266408857937813
aF0.28814417446164831
aF0.12817335824574871
aF0.051689542139787603
aF0.018788592112661928
aF0.006085659459944992
aF0.0017292193598981154
aF0.00042219541933818938
aF8.6097246944305539e-05
aF1.407584999191247e-05
aF1.7293083598435288e-06
aF1.41895302840922e-07
aF5.8313138762144945e-09
aa(lp15
F1
aF0.61907436073503785
aF0.32957087539831698
aF0.15922093012943339
aF0.070370538340550959
aF0.028327807029977725
aF0.010291651575021543
aF0.0033330135856219911
aF0.00094702706269067516
aF0.00023121768412248667
aF4.7151495262576226e-05
aF7.7086879861631985e-06
aF9.4706149023071617e-07
aF7.7709431445249777e-08
aF3.1935389888104737e-09
aa(lp16
F1
aF0.65412151253473383
aF0.37247760180396683
aF0.19400430291140502
aF0.09315968930802998
aF0.041103443766000725
aF0.016538341582988614
aF0.0060076634378780636
aF0.00194554478893183
aF0.00055279228038629391
aF0.00013496443924121415
aF2.7522851309580432e-05
aF4.4996457528867495e-06
aF5.5281014788022276e-07
aF4.5359843992009985e-08
aF1.8641034271738022e-09
aa(lp17
F1
aF0.68775475982511414
aF0.41654746597454173
aF0.23241198785692785
aF0.12036463201528458
aF0.057705575030689404
aF0.025449007756215281
aF0.010238328881231884
aF0.0037190080644945445
aF0.0012043657418571163
aF0.00034219835012405664
aF8.3547788193416572e-05
aF1.7037620173909751e-05
aF2.7854399884397196e-06
aF3.4220904243653649e-07
aF2.8079347846876601e-08
aF1.1539454947140371e-09
aa(lp18
F1
aF0.71991738841628927
aF0.46144115017674414
aF0.27424993798560782
aF0.15220695378941385
aF0.078708239158172599
aF0.037718406624535628
aF0.016632360391084067
aF0.0066910966637716562
aF0.0024304751781341061
aF0.00078708439034247402
aF0.0002236353699720528
aF5.4600604077248427e-05
aF1.1134517380329001e-05
aF1.8203557275997539e-06
aF2.2364229368410093e-07
aF1.835056651078304e-08
aF7.5413275624214293e-10
aa(lp19
F1
aF0.75054674598722604
aF0.5067952810624986
aF0.31923494366028504
aF0.18879905819766596
aF0.10463488920397779
aF0.054086383344753242
aF0.02591621517121323
aF0.011427681269931877
aF0.0045972443575550415
aF0.001669899619435089
aF0.00054077943123187477
aF0.00015365237264441944
aF3.7514244278336051e-05
aF7.650153429183959e-06
aF1.2507053591681583e-06
aF1.5365711869552712e-07
aF1.2608059374308311e-08
aF5.1813997536953593e-10
aa(lp20
F1
aF0.77957461960271335
aF0.55222158478925265
aF0.36698869150313251
aF0.23012030911259684
aF0.13591790052804775
aF0.07529924306341218
aF0.038918454038796457
aF0.018647731849672944
aF0.0082225935343791523
aF0.0033078609043531992
aF0.0012015441153532258
aF0.00038910735225627935
aF0.00011055757902989072
aF2.6992645109302771e-05
aF5.5045191403868543e-06
aF8.9992071905520277e-07
aF1.1056099080697379e-07
aF9.0718830225711145e-09
aF3.7281666642741129e-10
aa(lp21
F1
aF0.80692817434416686
aF0.59730733542609316
aF0.41703341428827134
aF0.2759936696279659
aF0.17285314780026995
aF0.10205818553589208
aF0.056535132771004637
aF0.029219380255346983
aF0.014000318490767438
aF0.0061733333159357251
aF0.0024834639630618716
aF0.00090209082396419671
aF0.00029213255650073489
aF8.3004002769504481e-05
aF2.0265436347477461e-05
aF4.1326621266213337e-06
aF6.7563908423551311e-07
aF8.3006563733611927e-08
aF6.8109541340177771e-09
aF2.7990187945192702e-10
aa(lp22
F1
aF0.83253166005511869
aF0.64161775285074696
aF0.46879042664691406
aF0.32606474863394863
aF0.21555171267225082
aF0.13495534325808678
aF0.079674682448009349
aF0.04413461558996179
aF0.022810175634050522
aF0.010929356841810178
aF0.0048192133268749604
aF0.001938716079641134
aF0.00070421714470603192
aF0.00022805325867603088
aF6.4797068392574708e-05
aF1.5820211313521959e-05
aF3.2261623684748386e-06
aF5.2743759937357027e-07
aF6.479906844436556e-08
aF5.3169717517675963e-09
aF2.1850632414555093e-10
aa(lp23
F1
aF0.85630910584792586
aF0.68470112398830274
aF0.52158322153136139
aF0.37978599819203884
aF0.26389219433218702
aF0.1743998736493424
aF0.10918112586912676
aF0.064456553766627067
aF0.03570450401781089
aF0.018453187934971971
aF0.008841727604795957
aF0.0038986891153257597
aF0.0015683993252211259
aF0.00056970367755415641
aF0.00018449249731034012
aF5.2420092671479068e-05
aF1.2798371336830705e-05
aF2.6099287261382997e-06
aF4.2669102795489522e-07
aF5.2421708973682257e-08
aF4.301368039527631e-09
aF1.7676737851246571e-10
aa(lp24
F1
aF0.8781881961492769
aF0.72609745846363505
aF0.57464710311008993
aF0.43640965941819942
aF0.3174787938221767
aF0.22053919271896438
aF0.14573748759962979
aF0.091235269819348042
aF0.053861619714628994
aF0.02983558169205236
aF0.015419939683105288
aF0.0073883648661122736
aF0.0032578402907663673
aF0.0013105929454594323
aF0.00047605836487418784
aF0.00015416645525911932
aF4.3803514978679736e-05
aF1.0694632953889283e-05
aF2.1809204492351242e-06
aF3.5655348740171178e-07
aF4.3804865956786898e-08
aF3.5943289455886429e-09
aF1.4771150969039581e-10
aa(lp25
F1
aF0.8981054329498408
aF0.76535136868161624
aF0.62714740097668908
aF0.49499371068368125
aF0.37561208746767671
aF0.2731836558378139
aF0.18975564512177878
aF0.12539236794167785
aF0.078498243856979677
aF0.046342112318315865
aF0.025670285946098881
aF0.013267185736082987
aF0.0063568864056390284
aF0.0028030180955108674
aF0.001127623026941138
aF0.00040959656907013642
aF0.0001326435071473675
aF3.7688171801164572e-05
aF9.2015712510606917e-06
aF1.8764454092767835e-06
aF3.0677558904290692e-07
aF3.7689334653201456e-08
aF3.0925305649631696e-09
aF1.2709022723100816e-10
aa(lp26
F1
aF0.91601251265339867
aF0.80202949431027293
aF0.6782079419801107
aF0.55442517594185325
aF0.43728071616745789
aF0.33174630380263448
aF0.24126437365899545
aF0.16758104909555949
aF0.11073856147195615
aF0.06932454204566596
aF0.040926319482058382
aF0.022670312805874837
aF0.011716707782511993
aF0.0056139848411796978
aF0.0024754415990710932
aF0.00099584264225727193
aF0.00036172880453622103
aF0.00011714203899648723
aF3.328371954103293e-05
aF8.1262237524581948e-06
aF1.6571534192655335e-06
aF2.7092406484907627e-07
aF3.3284747402717585e-08
aF2.7311208850022695e-09
aF1.1223866280829498e-10
aa(lp27
F1
aF0.93188357161385593
aF0.83574209857357395
aF0.72695043191238939
aF0.61346425273041838
aF0.50118236630906032
aF0.39521175761369887
aF0.29981305070555275
aF0.21803697996633253
aF0.1514466451997285
aF0.10007670159863979
aF0.062649978567351106
aF0.036985930840552683
aF0.020487612911965325
aF0.010588621923504515
aF0.0050734697747616408
aF0.0022371058128964894
aF0.00089996280422910413
aF0.00032690151582726035
aF0.0001058635907176253
aF3.0079159396345645e-05
aF7.3438300435268999e-06
aF1.4976025068946797e-06
aF2.4483946570175164e-07
aF3.0080087642936348e-08
aF2.4681676702442701e-09
aF1.0143164086429124e-10
aa(lp28
F1
aF0.94572260230647209
aF0.86616744525434997
aF0.77254358691686631
aF0.67081040074748144
aF0.5657805428348871
aF0.46214859488462723
aF0.36441269707210355
aF0.27644420305444062
aF0.20104122292000959
aF0.13964134646456206
aF0.092275664414040337
aF0.057766369572103238
aF0.034102850910583959
aF0.018890588558430177
aF0.0097632311031151664
aF0.0046779890929162793
aF0.0020627217771527206
aF0.00082981004478799303
aF0.00030141930334248723
aF9.7611446317258377e-05
aF2.7734466899742571e-05
aF6.7713731147778233e-06
aF1.3808632947087673e-06
aF2.2575404978741886e-07
aF2.7735322483124492e-08
aF2.275771904258761e-09
aF9.3524743505213337e-11
aa(lp29
F1
aF0.95756998127923521
aF0.89307635293609544
aF0.81425835044282779
aF0.72518764848636086
aF0.62939906002567336
aF0.53077609324311503
aF0.43353638138354422
aF0.34184677683072096
aF0.25932458541177617
aF0.18859092490738183
aF0.13099343894457494
aF0.08656107691572501
aF0.054188924430004115
aF0.031990876492525411
aF0.017720702749604578
aF0.009158598504895088
aF0.0043882832897143009
aF0.0019349783263036269
aF0.00077842027430552463
aF0.00028275253868204064
aF9.1566412451005164e-05
aF2.6016883583279693e-05
aF6.3520249606874302e-06
aF1.2953470388543664e-06
aF2.1177320053133997e-07
aF2.6017685783585875e-08
aF2.1348339762639057e-09
aF8.7732376918836508e-11
aa(lp30
F1
aF0.96750680325768668
aF0.91635322790395657
aF0.85152280199599706
aF0.77544135889069898
aF0.69034891840968338
aF0.59908816793536523
aF0.50519520546854801
aF0.41263706230426567
aF0.32536631953374195
aF0.24682225842482453
aF0.17949868782844225
aF0.12467804666832705
aF0.082387833844377534
aF0.051576392352676192
aF0.030448546656463682
aF0.01686636013912457
aF0.0087170482404600458
aF0.0041767173336266783
aF0.0018416900145159509
aF0.00074089142332445235
aF0.00026912059943273725
aF8.7151853423783621e-05
aF2.4762569197589457e-05
aF6.0457839656802292e-06
aF1.232896343905665e-06
aF2.0156328406351065e-07
aF2.4763331274435529e-08
aF2.0319088633868887e-09
aF8.3501205949687574e-11
aa(lp31
F1
aF0.97565573371020275
aF0.93600935725021439
aF0.88396827161375868
aF0.82063375183187426
aF0.74707351207981887
aF0.66502522256349339
aF0.57709315099951031
aF0.48664237399198573
aF0.39748207915342992
aF0.31341623808867469
aF0.23775688038484988
aF0.17290597941675689
aF0.12009881229379238
aF0.079361853847039088
aF0.049682069692682629
aF0.029330217703603223
aF0.016246884300898601
aF0.008396884273344063
aF0.0040233128376688798
aF0.0017740475321912363
aF0.00071367960449941759
aF0.00025923620778944834
aF8.3950897966422744e-05
aF2.3853077571023285e-05
aF5.8237314870535073e-06
aF1.1876139315303291e-06
aF1.9416017149609388e-07
aF2.3853812924912177e-08
aF1.9572811149615177e-09
aF8.0435547111790129e-11
aa(lp32
F1
aF0.98217749028421186
aF0.95218475255763912
aF0.91145777193018196
aF0.86012244706745733
aF0.79829045537308951
aF0.72667115936832349
aF0.64684574895783464
aF0.56131250877984329
aF0.47333381210674175
aF0.3866115204618612
aF0.30484467946147353
aF0.23125449653400243
aF0.16817719102164075
aF0.11681424104709803
aF0.077191393732771951
aF0.048323319264422571
aF0.028528068228926395
aF0.015802549728913151
aF0.0081672386433047084
aF0.0039132796180232354
aF0.0017255292663593824
aF0.00069416124541166191
aF0.00025214638013981716
aF8.16549324337279e-05
aF2.3200721903871013e-05
aF5.6644587785870115e-06
aF1.155133983576917e-06
aF1.8885010077962505e-07
aF2.3201435439546003e-08
aF1.9037499354723764e-09
aF7.8234085876260906e-11
aa(lp33
F1
aF0.98726283941836257
aF0.96513657193225932
aF0.93408992508520317
aF0.8936069837532008
aF0.84310494080044029
aF0.78244247969322323
aF0.71222882898832907
aF0.63398525893491109
aF0.55015129053140199
aF0.46392163485463433
aF0.37892371822135329
aF0.29878279705172361
aF0.22665596129805998
aF0.16483295777888152
aF0.11449136895617329
aF0.075656429011957904
aF0.047362401379072439
aF0.027960782465578315
aF0.01548831318756827
aF0.0080048316350624926
aF0.0038354633495186752
aF0.0016912168067830802
aF0.00068035772429131391
aF0.00024713240405516146
aF8.0031209427788852e-05
aF2.2739371379865148e-05
aF5.551819998506069e-06
aF1.1321639374894943e-06
aF1.8509478338923913e-07
aF2.2740071603521983e-08
aF1.8658944389571275e-09
aF7.6679218530273374e-11
aa(lp34
F1
aF0.99112097492936446
aF0.97521483575912438
aF0.9521760489612543
aF0.92113349802632061
aF0.88107288903644754
aF0.83123397249532383
aF0.77141149592675762
aF0.70218347632153888
aF0.62504223662056979
aF0.542390495221168
aF0.45737716229507397
aF0.37357827591593717
aF0.29456788998937566
aF0.22345854099386797
aF0.16250767013231393
aF0.11287624672252328
aF0.074589148718694043
aF0.046694263080181098
aF0.027566341535559813
aF0.015269820566086501
aF0.0078919079985502183
aF0.003781356718812523
aF0.0016673589218630935
aF0.00067075996235743673
aF0.00024364612338934055
aF7.8902214389442449e-05
aF2.2418588555006558e-05
aF5.4735008372386318e-06
aF1.1161925753677693e-06
aF1.8248366384643333e-07
aF2.2419279321894692e-08
aF1.8395728274001044e-09
aF7.5597972326590934e-11
aa(lp35
F1
aF0.993966018099115
aF0.98282901152432367
aF0.96619384068164049
aF0.94305650505151473
aF0.91220233063314848
aF0.87249339625399425
aF0.82312784456530819
aF0.76388501655500651
aF0.69533131587887209
aF0.61894252471206301
aF0.53709728233658471
aF0.4529135746908608
aF0.36993248373065624
aF0.29169316756854169
aF0.22127778268301368
aF0.16092173850277103
aF0.11177467402679764
aF0.073861224356135402
aF0.046238568219603704
aF0.027297318333605491
aF0.015120800573098836
aF0.0078148899308174702
aF0.0037444540093609646
aF0.0016510869680596008
aF0.00066421393619808811
aF0.00024126835192661567
aF7.8132198306546385e-05
aF2.2199802887090669e-05
aF5.4200842934948312e-06
aF1.1052995205762528e-06
aF1.8070278529069839e-07
aF2.2200488114521022e-08
aF1.8216214092703353e-09
aF7.4861450372054605e-11
aa(lp36
F1
aF0.99600382042619773
aF0.98841107924920879
aF0.97672625021728077
aF0.95996631232270702
aF0.93689558569000186
aF0.90621412620796682
aF0.86675612936100133
aF0.81771202733230508
aF0.75885800136326254
aF0.69075514517572389
aF0.61486900437637293
aF0.53356239619225598
aF0.44993273429034597
aF0.3674977799179312
aF0.28977339399191981
aF0.21982144666703141
aF0.15986263476063978
aF0.11103903086721911
aF0.073375107934753547
aF0.045934249850679842
aF0.027117661486254385
aF0.015021283275198138
aF0.0077634563624982
aF0.0037198099474717861
aF0.0016402203665938364
aF0.00065984242320515918
aF0.00023968044827382684
aF7.7617972540022784e-05
aF2.2053695252322036e-05
aF5.3844120979640309e-06
aF1.0980250093606259e-06
aF1.7951349218225943e-07
aF2.2054375214963784e-08
aF1.8096316667381984e-09
aF7.4367956237608723e-11
aa(lp37
F1
aF0.99742108943170438
aF0.99238116135844923
aF0.98439685426761592
aF0.97259766270239367
aF0.95584803794539774
aF0.93285437780869662
aF0.90229759930769649
aF0.8630075497685592
aF0.81417471542204845
aF0.75557502128599796
aF0.68776671349436902
aF0.6122088580892262
aF0.53125400549111723
aF0.44798615515878248
aF0.36590784514960395
aF0.28851972429323469
aF0.21887041562283116
aF0.15917100829804587
aF0.11055863385382736
aF0.073057659354234028
aF0.045735520842636879
aF0.027000340184929694
aF0.014956295499526151
aF0.0077298687021584156
aF0.0037037166370693653
aF0.0016331241504277116
aF0.00065698769431365989
aF0.00023864349963942377
aF7.7282167717740435e-05
aF2.1958282593659284e-05
aF5.3611170882650327e-06
aF1.0932745378999797e-06
aF1.7873685032032682e-07
aF2.1958961315959868e-08
aF1.8018041503253812e-09
aF7.4047878939609291e-11
aa(lp38
F1
aF0.99837816875663765
aF0.99512060486493403
aF0.9898124902385359
aF0.98173745474738028
aF0.96992711892550387
aF0.95320738991359255
aF0.93027142703927845
aF0.89979721911687627
aF0.86061535997096372
aF0.81191766303757262
aF0.7534803489042724
aF0.6858600043485803
aF0.61051161341479698
aF0.5297811926707553
aF0.44674418807638283
aF0.36489342641475841
aF0.28771985124496569
aF0.21826363371662683
aF0.15872973309032568
aF0.11025212838725951
aF0.072855119116605804
aF0.045608726700282154
aF0.026925486222100226
aF0.014914831652043214
aF0.0077084389238452067
aF0.0036934486972721725
aF0.001628596584713482
aF0.00065516630494766304
aF0.00023798190013468723
aF7.7067915730033576e-05
aF2.1897406897286587e-05
aF5.3462542792814816e-06
aF1.0902436142767868e-06
aF1.7824133069499482e-07
aF2.189808234742685e-08
aF1.7968075916030557e-09
aF7.3841155412424087e-11
aa(lp39
F1
aF0.99900586368430599
aF0.99695510248807773
aF0.99352061716471429
aF0.98814658491435425
aF0.9800554917353862
aF0.96825393856762143
aF0.95155876757188751
aF0.92866092287610913
aF0.898238930213894
aF0.85912474412947759
aF0.81051133383537777
aF0.7521752208503425
aF0.68467199812479362
aF0.60945411961586182
aF0.52886353511044781
aF0.44597036248640576
aF0.36426137816040793
aF0.28722147879110405
aF0.21788556948949123
aF0.15845479020167552
aF0.1100611557315383
aF0.072728923497657583
aF0.04552972577947656
aF0.026878847379961268
aF0.014888997003293269
aF0.0076950867911047549
aF0.0036870511091522395
aF0.0016257756195343642
aF0.00065403146200881945
aF0.00023756968101174003
aF7.6934422935548419e-05
aF2.185947741517591e-05
aF5.336993790794331e-06
aF1.0883551526674751e-06
aF1.7793258910714371e-07
aF2.1860149912455995e-08
aF1.7936935270412846e-09
aF7.3711592385450331e-11
aa(lp40
F1
aF0.99940584542359445
aF0.99814793530831147
aF0.99598432991400598
aF0.99250483759291241
aF0.98711646928578067
aF0.97902591334608113
aF0.96723370764157224
aF0.95055498671816874
aF0.92768088341108967
aF0.89729085139352516
aF0.85821790105695539
aF0.80965578846336661
aF0.75138124793702077
aF0.68394927803800432
aF0.60881079693098084
aF0.52830528146897726
aF0.44549960854162551
aF0.36387687394522872
aF0.28691829575661942
aF0.21765557551922576
aF0.15828752971530247
aF0.10994497822489413
aF0.072652152861032104
aF0.045481665862384446
aF0.026850474813369107
aF0.014873280590569693
aF0.0076869640706878073
aF0.0036831591601551583
aF0.0016240594958346621
aF0.00065334108451875483
aF0.00023731890903933017
aF7.6853213091032657e-05
aF2.1836403157227124e-05
aF5.3313602087490253e-06
aF1.0872063158640088e-06
aF1.777447691253542e-07
aF2.1837075703246001e-08
aF1.7918008188289036e-09
aF7.3634431885238882e-11
aa(lp41
F1
aF0.99965362737813557
aF0.99890150397196953
aF0.99757380823531727
aF0.99538091110069282
aF0.99189064230864499
aF0.98650032386875686
aF0.97841271329888102
aF0.96662708055432633
aF0.94995851598817582
aF0.92709865602867414
aF0.89672765878430194
aF0.85767921994530627
aF0.80914758430797273
aF0.75090962018233398
aF0.68351997565477773
aF0.60842865747607733
aF0.52797367382907834
aF0.44521997651189893
aF0.36364847502451503
aF0.2867382023405215
aF0.21751895705766044
aF0.15818817550051345
aF0.10987596775387343
aF0.072606550420878158
aF0.045453117844687307
aF0.026833621256762918
aF0.014863944901793325
aF0.0076821391026006269
aF0.0036808473078757675
aF0.0016230401031110953
aF0.0006529309941560868
aF0.00023716994825928595
aF7.6804973721311676e-05
aF2.1822696842477285e-05
aF5.3280138104794261e-06
aF1.0865238960766632e-06
aF1.7763320192543119e-07
aF2.1823368889783978e-08
aF1.7906761629049583e-09
aF7.3588246607414476e-11
aa(lp42
F1
aF0.99980294919519064
aF0.9993643704046794
aF0.99857031196437296
aF0.99722428680955
aF0.99502401840358579
aF0.99153156649645457
aF0.98614179070353503
aF0.97805655845677386
aF0.96627499913149928
aF0.94961242479512731
aF0.92676086384827749
aF0.89640092213843459
aF0.85736670774213408
aF0.80885275443025606
aF0.75063601017521353
aF0.68327092040258519
aF0.6082069633354994
aF0.52778129519346928
aF0.44505775097481803
aF0.36351597182939499
aF0.28663372306828072
aF0.21743969931608564
aF0.15813053621378181
aF0.1098359320660578
aF0.072580094652201499
aF0.045436556017078855
aF0.026823843845873996
aF0.014858528901644297
aF0.0076793399488904734
aF0.0036795061114645033
aF0.0016224487133092991
aF0.00065269308461235465
aF0.00023708353025453377
aF7.6776988167104321e-05
aF2.1814745271186986e-05
aF5.3260724340864485e-06
aF1.0861279984286654e-06
aF1.775684782545639e-07
aF2.1815417916570823e-08
aF1.7900244619895034e-09
aF7.3562156366335785e-11
aa(lp43
F1
aF0.99989054994703985
aF0.99964100382672572
aF0.99917789876430008
aF0.99837275094205324
aF0.99702198805533726
aF0.99481999591869463
aF0.99132734442893977
aF0.98593830317051312
aF0.97785458971027639
aF0.96607540550230731
aF0.94941625136824792
aF0.92656940333257198
aF0.89621573097942919
aF0.85718957989918421
aF0.80868564903693729
aF0.75048093200933175
aF0.6831297595458351
aF0.60808131036386404
aF0.5276722578205385
aF0.44496580393401952
aF0.36344087097363809
aF0.2865745057585265
aF0.21739477719773925
aF0.15809786711662599
aF0.10981324042899687
aF0.072565099912913489
aF0.045427169017586144
aF0.026818302153662099
aF0.01485545919267961
aF0.0076777534298713146
aF0.0036787459411276036
aF0.0016221135222939109
aF0.0006525582409909747
aF0.00023703454980184002
aF7.6761126365121335e-05
aF2.1810238435171492e-05
aF5.324972087827895e-06
aF1.085903606701244e-06
aF1.7753179104573746e-07
aF2.1810908634734005e-08
aF1.789652315231649e-09
aF7.3544614842546707e-11
aa(lp44
F1
aF0.9999406152968604
aF0.99980199443291606
aF0.99953846887520792
aF0.9990688530746844
aF0.9982607968467595
aF0.99690885118512784
aF0.99470653029919087
aF0.99121403301456146
aF0.98582550759573062
aF0.9777426790641327
aF0.96596482752079937
aF0.94930757444680536
aF0.92646333953725291
aF0.89611314101965867
aF0.85709145702311529
aF0.80859307834760519
aF0.7503950240208267
aF0.68305156127767119
aF0.60801170293395856
aF0.52761185486218887
aF0.44491486843266059
aF0.3633992676800113
aF0.2865417014036381
aF0.21736989188770894
aF0.15807976955932024
aF0.10980067004175664
aF0.072556793342572923
aF0.045421968942409352
aF0.026815232246593546
aF0.014853758679392315
aF0.0076768745528511539
aF0.0036783248328839946
aF0.0016219278379920876
aF0.00065248354226155048
aF0.0002370074163176028
aF7.6752339475461007e-05
aF2.1807741806489922e-05
aF5.3243625374177483e-06
aF1.0857793049101616e-06
aF1.7751147107780696e-07
aF2.1808414185642278e-08
aF1.7894498105519574e-09
aF7.3538619638213731e-11
aa(lp45
F1
aF0.99996851006483423
aF0.99989329410554084
aF0.99974690009661715
aF0.99947965564521668
aF0.99900831874243567
aF0.99819951252217198
aF0.99684729408223915
aF0.99464495489623661
aF0.99115260870423005
aF0.98576439050266529
aF0.9776820524381391
aF0.96590492709310782
aF0.94924870541481932
aF0.92640588657940148
aF0.89605756998025721
aF0.85703830578611084
aF0.80854293464324301
aF0.75034848937609366
aF0.68300920283681599
aF0.60797399797929197
aF0.52757913578610793
aF0.4448872776889764
aF0.3633767320068616
aF0.28652393193984993
aF0.21735641201234035
aF0.15806996647401905
aF0.10979386091407606
aF0.072552293839338144
aF0.045419152165553256
aF0.026813569339252052
aF0.01485283754530875
aF0.0076763984827215026
aF0.0036780967269568476
aF0.0016218272565116099
aF0.00065244307944867241
aF0.00023699271864796589
aF7.6747579789593345e-05
aF2.1806389429390727e-05
aF5.3240323529823996e-06
aF1.0857119699947404e-06
aF1.7750046110709405e-07
aF2.180705993559684e-08
aF1.7893370118926555e-09
aF7.3532180344670905e-11
aa(lp46
F1
aF0.999983672422045
aF0.9999437864816817
aF0.99986435048270439
aF0.99971588622203889
aF0.99944765452319606
aF0.99897586639914682
aF0.99816687340574739
aF0.99681460431028746
aF0.99461229620359526
aF0.99112004732068693
aF0.98573199901250652
aF0.97764992369179549
aF0.96587318427320423
aF0.9492175095634342
aF0.92637544127986438
aF0.89602812199253279
aF0.85701014010788279
aF0.80851636270958216
aF0.75032382994136659
aF0.68298675643824935
aF0.60795401753579958
aF0.52756179743747578
aF0.44487265692366318
aF0.36336479000225352
aF0.28651451562390462
aF0.21734926881618766
aF0.15806477166625643
aF0.10979025265114239
aF0.072549909482413022
aF0.045417659511575503
aF0.026812688138722729
aF0.014852349421995537
aF0.0076761462057375329
aF0.0036779758500702364
aF0.0016217739568178402
aF0.00065242163757428528
aF0.00023698493012469513
aF7.6745057558946783e-05
aF2.1805672784758201e-05
aF5.3238573841651871e-06
aF1.0856762893141081e-06
aF1.7749462788430037e-07
aF2.1806343397656747e-08
aF1.7892782810946528e-09
aF7.3529848876319193e-11
aa(lp47
F1
aF0.9999917180363973
aF0.99997103679017973
aF0.99992891235717196
aF0.99984835172832875
aF0.99969933665766031
aF0.99943084392745729
aF0.99895893939107372
aF0.99814990329404107
aF0.99679763189055814
aF0.99459535031070401
aF0.9911031562982715
aF0.98571519791635265
aF0.97763325959261582
aF0.96585672061713279
aF0.94920132970004667
aF0.92635965073082549
aF0.89601284871543141
aF0.85699553190842026
aF0.80850258111115936
aF0.75031104026564488
aF0.68297511455924276
aF0.60794365463040645
aF0.52755280486098988
aF0.44486507382834672
aF0.36335859625266131
aF0.28650963182885048
aF0.21734556398021565
aF0.15806207736663869
aF0.10978838121684009
aF0.072548672829924277
aF0.045416885342978608
aF0.026812231101936868
aF0.014852096255659197
aF0.0076760153616706184
aF0.0036779131569819601
aF0.0016217463128042064
aF0.00065241051669584493
aF0.00023698089058987737
aF7.6743749399477146e-05
aF2.1805301096855523e-05
aF5.323766637754801e-06
aF1.0856577850049121e-06
aF1.774916039698482e-07
aF2.1805973249300337e-08
aF1.7892493042737101e-09
aF7.3530070920924118e-11
aa(lp48
F1
aF0.99999588842245035
aF0.9999853980260347
aF0.99996355591648522
aF0.99992083474064564
aF0.99983997454944407
aF0.99969081321257025
aF0.99942225197972223
aF0.99895031834111947
aF0.99814127407649478
aF0.99678900761752365
aF0.99458674216616261
aF0.99109457714390747
aF0.98570666489471737
aF0.97762479633208421
aF0.96584835922687629
aF0.94919311246582549
aF0.92635163122643016
aF0.89600509191990407
aF0.85698811288509558
aF0.80849558189164106
aF0.75030454481108144
aF0.68296920203281708
aF0.60793839165251162
aF0.52754823782795834
aF0.44486122262431871
aF0.36335545065150754
aF0.28650715151040573
aF0.21734368241620794
aF0.15806070902071889
aF0.10978743077707676
aF0.072548044774909615
aF0.045416492168280365
aF0.026811998988026664
aF0.014851967680826861
aF0.007675948910284891
aF0.0036778813172306801
aF0.001621732273322074
aF0.00065240486876905202
aF0.00023697883904394423
aF7.6743085029029601e-05
aF2.1805112329409404e-05
aF5.3237205511758035e-06
aF1.0856483877441647e-06
aF1.7749006875344975e-07
aF2.180578584365378e-08
aF1.7892352044412974e-09
aF7.3530848077041355e-11
aa(lp49
F1
aF0.99999800132507377
aF0.99999279334927516
aF0.99998171406604397
aF0.99995956244060769
aF0.99991668222079477
aF0.99983574230894645
aF0.99968654226638187
aF0.99941796330316524
aF0.99894602284731326
aF0.99813697802170864
aF0.99678471558399795
aF0.99458245883512542
aF0.99109030852318669
aF0.98570241934458325
aF0.97762058553769793
aF0.96584419913481401
aF0.94918902410329831
aF0.9263476412438687
aF0.89600123264499965
aF0.85698442166386846
aF0.80849209953745005
aF0.75030131309743675
aF0.68296626034612151
aF0.60793577313871117
aF0.52754596557083322
aF0.44485930651691696
aF0.36335388560597548
aF0.28650591746606446
aF0.21734274627293793
aF0.15806002822122367
aF0.10978695790036919
aF0.072547732295780709
aF0.045416296550244373
aF0.026811883503311318
aF0.014851903710389025
aF0.0076759158484135392
aF0.0036778654758462537
aF0.0016217252881880473
aF0.00065240205872452162
aF0.00023697781832354714
aF7.6742754476555319e-05
aF2.1805018405873788e-05
aF5.323697616299583e-06
aF1.0856437071549152e-06
aF1.7748929981298289e-07
aF2.1805687366871496e-08
aF1.7892229919880265e-09
aF7.3526074118035467e-11
aa(lp50
F1
aF0.99999904825203234
aF0.99999651660244271
aF0.99999101626060749
aF0.99997977995244292
aF0.99995754581104823
aF0.9999146232205921
aF0.99983366212707514
aF0.99968445190506017
aF0.9994158684693949
aF0.99894392664478981
aF0.99813488243959836
aF0.99678262236122994
aF0.99458037002899946
aF0.99108822696343357
aF0.9857003490648597
aF0.97761853221798334
aF0.96584217054378441
aF0.94918703049155118
aF0.92634569560585067
aF0.89599935074426618
aF0.85698262171133233
aF0.80849040143490236
aF0.75029973721490262
aF0.68296482588961127
aF0.60793449627120122
aF0.52754485754868108
aF0.4448583721642756
aF0.36335312244185158
aF0.28650531570825677
aF0.21734228978081449
aF0.15805969624254368
aF0.1097867273112072
aF0.072547579921389715
aF0.045416201160900616
aF0.026811827189428539
aF0.014851872516445264
aF0.0076758997264332329
aF0.0036778577511027422
aF0.0016217218820233636
aF0.00065240068846139643
aF0.00023697732058958199
aF7.6742593289491623e-05
aF2.1804972606398465e-05
aF5.3236864331340783e-06
aF1.0856414253135327e-06
aF1.7748892533475669e-07
aF2.1805639960348344e-08
aF1.7892175518952058e-09
aF7.3524186738893604e-11
aa(lp51
F1
aF0.99999955585139355
aF0.99999835030517825
aF0.9999956765305773
aF0.99999009822715057
aF0.99997882005079097
aF0.99995656391508447
aF0.99991363004488909
aF0.99983266333890353
aF0.99968345046864826
aF0.9994148659596247
aF0.99894292397963225
aF0.99813388029921968
aF0.99678162145061167
aF0.99457937127427609
aF0.99108723169210078
aF0.98569935919454388
aF0.97761755045985033
aF0.96584120061040157
aF0.9491860772833054
aF0.92634476533550669
aF0.89599845094876562
aF0.85698176109784252
aF0.80848958951907746
aF0.75029898373628279
aF0.68296414003118799
aF0.60793388576099749
aF0.52754432776871263
aF0.44485792542112046
aF0.36335275754926954
aF0.28650502798907196
aF0.21734207151768703
aF0.15805953751317958
aF0.10978661705933612
aF0.072547507066441641
aF0.045416155552282178
aF0.026811800264007424
aF0.014851857601651086
aF0.0076758920180151069
aF0.0036778540576656304
aF0.0016217202534336561
aF0.00065240003329969376
aF0.00023697708261127826
aF7.6742516224803659e-05
aF2.1804950712023263e-05
aF5.3236810898527054e-06
aF1.0856403379611024e-06
aF1.774887500305411e-07
aF2.1805620975534623e-08
aF1.7892186621182304e-09
aF7.352707331875763e-11
aa.